target datalayout = "e-m:e-p270:32:32-p271:32:32-p272:64:64-i64:64-i128:128-f80:128-n8:16:32:64-S128"
target triple = "x86_64-unknown-linux-gnu"

@.str.28 = private unnamed_addr constant [3 x i8] c"%s\00", align 1
@.str.213 = private unnamed_addr constant [5 x i8] c"true\00", align 1
@.str.214 = private unnamed_addr constant [6 x i8] c"false\00", align 1
@.str.215 = private unnamed_addr constant [3 x i8] c"%d\00", align 1
@.str.216 = private unnamed_addr constant [4 x i8] c"%ld\00", align 1
@.str.217 = private unnamed_addr constant [3 x i8] c"%u\00", align 1
@.str.218 = private unnamed_addr constant [4 x i8] c"%zd\00", align 1
@.str.219 = private unnamed_addr constant [4 x i8] c"%zu\00", align 1
@.str.220 = private unnamed_addr constant [5 x i8] c"\22%s\22\00", align 1
@.str.221 = private unnamed_addr constant [4 x i8] c"%lu\00", align 1
@.str.222 = private unnamed_addr constant [5 x i8] c"%%%s\00", align 1
@.str.223 = private unnamed_addr constant [8 x i8] c"%%-%d%s\00", align 1
@.str.224 = private unnamed_addr constant [7 x i8] c"%%%d%s\00", align 1

; Function Attrs: nounwind uwtable
define internal ptr @emitter_gen_fmt(ptr noundef %out_fmt, i64 noundef %out_size, ptr noundef %fmt_specifier, i32 noundef %justify, i32 noundef %width) #0 {
entry:
  %out_fmt.addr = alloca ptr, align 8
  %out_size.addr = alloca i64, align 8
  %fmt_specifier.addr = alloca ptr, align 8
  %justify.addr = alloca i32, align 4
  %width.addr = alloca i32, align 4
  %written = alloca i64, align 8
  store ptr %out_fmt, ptr %out_fmt.addr, align 8
  store i64 %out_size, ptr %out_size.addr, align 8
  store ptr %fmt_specifier, ptr %fmt_specifier.addr, align 8
  store i32 %justify, ptr %justify.addr, align 4
  store i32 %width, ptr %width.addr, align 4
  %0 = load ptr, ptr %fmt_specifier.addr, align 8
  %incdec.ptr = getelementptr inbounds i8, ptr %0, i32 1
  store ptr %incdec.ptr, ptr %fmt_specifier.addr, align 8
  %1 = load i32, ptr %justify.addr, align 4
  %cmp = icmp eq i32 %1, 2
  br i1 %cmp, label %if.then, label %if.else

if.then:                                          ; preds = %entry
  %2 = load ptr, ptr %out_fmt.addr, align 8
  %3 = load i64, ptr %out_size.addr, align 8
  %4 = load ptr, ptr %fmt_specifier.addr, align 8
  %call = call i64 (ptr, i64, ptr, ...) @malloc_snprintf(ptr noundef %2, i64 noundef %3, ptr noundef @.str.222, ptr noundef %4)
  store i64 %call, ptr %written, align 8
  br label %if.end6

if.else:                                          ; preds = %entry
  %5 = load i32, ptr %justify.addr, align 4
  %cmp1 = icmp eq i32 %5, 0
  br i1 %cmp1, label %if.then2, label %if.else4

if.then2:                                         ; preds = %if.else
  %6 = load ptr, ptr %out_fmt.addr, align 8
  %7 = load i64, ptr %out_size.addr, align 8
  %8 = load i32, ptr %width.addr, align 4
  %9 = load ptr, ptr %fmt_specifier.addr, align 8
  %call3 = call i64 (ptr, i64, ptr, ...) @malloc_snprintf(ptr noundef %6, i64 noundef %7, ptr noundef @.str.223, i32 noundef %8, ptr noundef %9)
  store i64 %call3, ptr %written, align 8
  br label %if.end

if.else4:                                         ; preds = %if.else
  %10 = load ptr, ptr %out_fmt.addr, align 8
  %11 = load i64, ptr %out_size.addr, align 8
  %12 = load i32, ptr %width.addr, align 4
  %13 = load ptr, ptr %fmt_specifier.addr, align 8
  %call5 = call i64 (ptr, i64, ptr, ...) @malloc_snprintf(ptr noundef %10, i64 noundef %11, ptr noundef @.str.224, i32 noundef %12, ptr noundef %13)
  store i64 %call5, ptr %written, align 8
  br label %if.end

if.end:                                           ; preds = %if.else4, %if.then2
  br label %if.end6

if.end6:                                          ; preds = %if.end, %if.then
  br label %do.body

do.body:                                          ; preds = %if.end6
  br label %do.end

do.end:                                           ; preds = %do.body
  %14 = load ptr, ptr %out_fmt.addr, align 8
  ret ptr %14
}

; Function Attrs: nounwind uwtable
define internal void @emitter_print_value(ptr noundef %emitter, i32 noundef %justify, i32 noundef %width, i32 noundef %value_type, ptr noundef %value) #0 {
entry:
  %emitter.addr = alloca ptr, align 8
  %justify.addr = alloca i32, align 4
  %width.addr = alloca i32, align 4
  %value_type.addr = alloca i32, align 4
  %value.addr = alloca ptr, align 8
  %str_written = alloca i64, align 8
  %fmt = alloca [10 x i8], align 1
  %buf = alloca [256 x i8], align 16
  store ptr %emitter, ptr %emitter.addr, align 8
  store i32 %justify, ptr %justify.addr, align 4
  store i32 %width, ptr %width.addr, align 4
  store i32 %value_type, ptr %value_type.addr, align 4
  store ptr %value, ptr %value.addr, align 8
  %0 = load i32, ptr %value_type.addr, align 4
  switch i32 %0, label %sw.default [
    i32 0, label %sw.bb
    i32 1, label %sw.bb1
    i32 2, label %sw.bb4
    i32 3, label %sw.bb7
    i32 7, label %sw.bb10
    i32 6, label %sw.bb13
    i32 8, label %sw.bb16
    i32 4, label %sw.bb22
    i32 5, label %sw.bb25
    i32 9, label %sw.bb28
  ]

sw.bb:                                            ; preds = %entry
  %1 = load ptr, ptr %emitter.addr, align 8
  %arraydecay = getelementptr inbounds [10 x i8], ptr %fmt, i64 0, i64 0
  %2 = load i32, ptr %justify.addr, align 4
  %3 = load i32, ptr %width.addr, align 4
  %call = call ptr @emitter_gen_fmt(ptr noundef %arraydecay, i64 noundef 10, ptr noundef @.str.28, i32 noundef %2, i32 noundef %3)
  %4 = load ptr, ptr %value.addr, align 8
  %5 = load i8, ptr %4, align 1
  %tobool = trunc i8 %5 to i1
  %cond = select i1 %tobool, ptr @.str.213, ptr @.str.214
  call void (ptr, ptr, ...) @emitter_printf(ptr noundef %1, ptr noundef %call, ptr noundef %cond)
  br label %sw.epilog

sw.bb1:                                           ; preds = %entry
  %6 = load ptr, ptr %emitter.addr, align 8
  %arraydecay2 = getelementptr inbounds [10 x i8], ptr %fmt, i64 0, i64 0
  %7 = load i32, ptr %justify.addr, align 4
  %8 = load i32, ptr %width.addr, align 4
  %call3 = call ptr @emitter_gen_fmt(ptr noundef %arraydecay2, i64 noundef 10, ptr noundef @.str.215, i32 noundef %7, i32 noundef %8)
  %9 = load ptr, ptr %value.addr, align 8
  %10 = load i32, ptr %9, align 4
  call void (ptr, ptr, ...) @emitter_printf(ptr noundef %6, ptr noundef %call3, i32 noundef %10)
  br label %sw.epilog

sw.bb4:                                           ; preds = %entry
  %11 = load ptr, ptr %emitter.addr, align 8
  %arraydecay5 = getelementptr inbounds [10 x i8], ptr %fmt, i64 0, i64 0
  %12 = load i32, ptr %justify.addr, align 4
  %13 = load i32, ptr %width.addr, align 4
  %call6 = call ptr @emitter_gen_fmt(ptr noundef %arraydecay5, i64 noundef 10, ptr noundef @.str.216, i32 noundef %12, i32 noundef %13)
  %14 = load ptr, ptr %value.addr, align 8
  %15 = load i64, ptr %14, align 8
  call void (ptr, ptr, ...) @emitter_printf(ptr noundef %11, ptr noundef %call6, i64 noundef %15)
  br label %sw.epilog

sw.bb7:                                           ; preds = %entry
  %16 = load ptr, ptr %emitter.addr, align 8
  %arraydecay8 = getelementptr inbounds [10 x i8], ptr %fmt, i64 0, i64 0
  %17 = load i32, ptr %justify.addr, align 4
  %18 = load i32, ptr %width.addr, align 4
  %call9 = call ptr @emitter_gen_fmt(ptr noundef %arraydecay8, i64 noundef 10, ptr noundef @.str.217, i32 noundef %17, i32 noundef %18)
  %19 = load ptr, ptr %value.addr, align 8
  %20 = load i32, ptr %19, align 4
  call void (ptr, ptr, ...) @emitter_printf(ptr noundef %16, ptr noundef %call9, i32 noundef %20)
  br label %sw.epilog

sw.bb10:                                          ; preds = %entry
  %21 = load ptr, ptr %emitter.addr, align 8
  %arraydecay11 = getelementptr inbounds [10 x i8], ptr %fmt, i64 0, i64 0
  %22 = load i32, ptr %justify.addr, align 4
  %23 = load i32, ptr %width.addr, align 4
  %call12 = call ptr @emitter_gen_fmt(ptr noundef %arraydecay11, i64 noundef 10, ptr noundef @.str.218, i32 noundef %22, i32 noundef %23)
  %24 = load ptr, ptr %value.addr, align 8
  %25 = load i64, ptr %24, align 8
  call void (ptr, ptr, ...) @emitter_printf(ptr noundef %21, ptr noundef %call12, i64 noundef %25)
  br label %sw.epilog

sw.bb13:                                          ; preds = %entry
  %26 = load ptr, ptr %emitter.addr, align 8
  %arraydecay14 = getelementptr inbounds [10 x i8], ptr %fmt, i64 0, i64 0
  %27 = load i32, ptr %justify.addr, align 4
  %28 = load i32, ptr %width.addr, align 4
  %call15 = call ptr @emitter_gen_fmt(ptr noundef %arraydecay14, i64 noundef 10, ptr noundef @.str.219, i32 noundef %27, i32 noundef %28)
  %29 = load ptr, ptr %value.addr, align 8
  %30 = load i64, ptr %29, align 8
  call void (ptr, ptr, ...) @emitter_printf(ptr noundef %26, ptr noundef %call15, i64 noundef %30)
  br label %sw.epilog

sw.bb16:                                          ; preds = %entry
  %arraydecay17 = getelementptr inbounds [256 x i8], ptr %buf, i64 0, i64 0
  %31 = load ptr, ptr %value.addr, align 8
  %32 = load ptr, ptr %31, align 8
  %call18 = call i64 (ptr, i64, ptr, ...) @malloc_snprintf(ptr noundef %arraydecay17, i64 noundef 256, ptr noundef @.str.220, ptr noundef %32)
  store i64 %call18, ptr %str_written, align 8
  br label %do.body

do.body:                                          ; preds = %sw.bb16
  br label %do.end

do.end:                                           ; preds = %do.body
  %33 = load ptr, ptr %emitter.addr, align 8
  %arraydecay19 = getelementptr inbounds [10 x i8], ptr %fmt, i64 0, i64 0
  %34 = load i32, ptr %justify.addr, align 4
  %35 = load i32, ptr %width.addr, align 4
  %call20 = call ptr @emitter_gen_fmt(ptr noundef %arraydecay19, i64 noundef 10, ptr noundef @.str.28, i32 noundef %34, i32 noundef %35)
  %arraydecay21 = getelementptr inbounds [256 x i8], ptr %buf, i64 0, i64 0
  call void (ptr, ptr, ...) @emitter_printf(ptr noundef %33, ptr noundef %call20, ptr noundef %arraydecay21)
  br label %sw.epilog

sw.bb22:                                          ; preds = %entry
  %36 = load ptr, ptr %emitter.addr, align 8
  %arraydecay23 = getelementptr inbounds [10 x i8], ptr %fmt, i64 0, i64 0
  %37 = load i32, ptr %justify.addr, align 4
  %38 = load i32, ptr %width.addr, align 4
  %call24 = call ptr @emitter_gen_fmt(ptr noundef %arraydecay23, i64 noundef 10, ptr noundef @.str.217, i32 noundef %37, i32 noundef %38)
  %39 = load ptr, ptr %value.addr, align 8
  %40 = load i32, ptr %39, align 4
  call void (ptr, ptr, ...) @emitter_printf(ptr noundef %36, ptr noundef %call24, i32 noundef %40)
  br label %sw.epilog

sw.bb25:                                          ; preds = %entry
  %41 = load ptr, ptr %emitter.addr, align 8
  %arraydecay26 = getelementptr inbounds [10 x i8], ptr %fmt, i64 0, i64 0
  %42 = load i32, ptr %justify.addr, align 4
  %43 = load i32, ptr %width.addr, align 4
  %call27 = call ptr @emitter_gen_fmt(ptr noundef %arraydecay26, i64 noundef 10, ptr noundef @.str.221, i32 noundef %42, i32 noundef %43)
  %44 = load ptr, ptr %value.addr, align 8
  %45 = load i64, ptr %44, align 8
  call void (ptr, ptr, ...) @emitter_printf(ptr noundef %41, ptr noundef %call27, i64 noundef %45)
  br label %sw.epilog

sw.bb28:                                          ; preds = %entry
  %46 = load ptr, ptr %emitter.addr, align 8
  %arraydecay29 = getelementptr inbounds [10 x i8], ptr %fmt, i64 0, i64 0
  %47 = load i32, ptr %justify.addr, align 4
  %48 = load i32, ptr %width.addr, align 4
  %call30 = call ptr @emitter_gen_fmt(ptr noundef %arraydecay29, i64 noundef 10, ptr noundef @.str.28, i32 noundef %47, i32 noundef %48)
  %49 = load ptr, ptr %value.addr, align 8
  %50 = load ptr, ptr %49, align 8
  call void (ptr, ptr, ...) @emitter_printf(ptr noundef %46, ptr noundef %call30, ptr noundef %50)
  br label %sw.epilog

sw.default:                                       ; preds = %entry
  unreachable

sw.epilog:                                        ; preds = %sw.bb28, %sw.bb25, %sw.bb22, %do.end, %sw.bb13, %sw.bb10, %sw.bb7, %sw.bb4, %sw.bb1, %sw.bb
  ret void
}