; Function Attrs: nounwind uwtable
define internal fastcc void @emitter_print_value(ptr nocapture noundef readonly %emitter, i32 noundef %justify, i32 noundef %width, i32 noundef %value_type, ptr nocapture noundef readonly %value) unnamed_addr #0 {
entry:
  %fmt = alloca [10 x i8], align 1
  %buf = alloca [256 x i8], align 16
  switch i32 %value_type, label %sw.default [
    i32 0, label %sw.bb
    i32 1, label %sw.bb1
    i32 2, label %sw.bb4
    i32 3, label %sw.bb7
    i32 7, label %sw.bb10
    i32 6, label %sw.bb13
    i32 8, label %sw.bb16
    i32 4, label %sw.bb22
    i32 5, label %sw.bb25
    i32 9, label %sw.bb28
  ]

sw.bb:                                            ; preds = %entry
  switch i32 %justify, label %if.else4.i [
    i32 2, label %if.then.i
    i32 0, label %if.then2.i
  ]

if.then.i:                                        ; preds = %sw.bb
  %call.i = call i64 (ptr, i64, ptr, ...) @malloc_snprintf(ptr noundef nonnull %fmt, i64 noundef 10, ptr noundef nonnull @.str.222, ptr noundef nonnull getelementptr inbounds ([3 x i8], ptr @.str.28, i64 0, i64 1)) #13
  br label %emitter_gen_fmt.exit

if.then2.i:                                       ; preds = %sw.bb
  %call3.i = call i64 (ptr, i64, ptr, ...) @malloc_snprintf(ptr noundef nonnull %fmt, i64 noundef 10, ptr noundef nonnull @.str.223, i32 noundef %width, ptr noundef nonnull getelementptr inbounds ([3 x i8], ptr @.str.28, i64 0, i64 1)) #13
  br label %emitter_gen_fmt.exit

if.else4.i:                                       ; preds = %sw.bb
  %call5.i = call i64 (ptr, i64, ptr, ...) @malloc_snprintf(ptr noundef nonnull %fmt, i64 noundef 10, ptr noundef nonnull @.str.224, i32 noundef %width, ptr noundef nonnull getelementptr inbounds ([3 x i8], ptr @.str.28, i64 0, i64 1)) #13
  br label %emitter_gen_fmt.exit

emitter_gen_fmt.exit:                             ; preds = %if.then.i, %if.then2.i, %if.else4.i
  %0 = load i8, ptr %value, align 1
  %1 = and i8 %0, 1
  %tobool.not = icmp eq i8 %1, 0
  %cond = select i1 %tobool.not, ptr @.str.214, ptr @.str.213
  call void (ptr, ptr, ...) @emitter_printf(ptr noundef %emitter, ptr noundef nonnull %fmt, ptr noundef nonnull %cond)
  br label %sw.epilog

sw.bb1:                                           ; preds = %entry
  switch i32 %justify, label %if.else4.i41 [
    i32 2, label %if.then.i39
    i32 0, label %if.then2.i37
  ]

if.then.i39:                                      ; preds = %sw.bb1
  %call.i40 = call i64 (ptr, i64, ptr, ...) @malloc_snprintf(ptr noundef nonnull %fmt, i64 noundef 10, ptr noundef nonnull @.str.222, ptr noundef nonnull getelementptr inbounds ([3 x i8], ptr @.str.215, i64 0, i64 1)) #13
  br label %emitter_gen_fmt.exit43

if.then2.i37:                                     ; preds = %sw.bb1
  %call3.i38 = call i64 (ptr, i64, ptr, ...) @malloc_snprintf(ptr noundef nonnull %fmt, i64 noundef 10, ptr noundef nonnull @.str.223, i32 noundef %width, ptr noundef nonnull getelementptr inbounds ([3 x i8], ptr @.str.215, i64 0, i64 1)) #13
  br label %emitter_gen_fmt.exit43

if.else4.i41:                                     ; preds = %sw.bb1
  %call5.i42 = call i64 (ptr, i64, ptr, ...) @malloc_snprintf(ptr noundef nonnull %fmt, i64 noundef 10, ptr noundef nonnull @.str.224, i32 noundef %width, ptr noundef nonnull getelementptr inbounds ([3 x i8], ptr @.str.215, i64 0, i64 1)) #13
  br label %emitter_gen_fmt.exit43

emitter_gen_fmt.exit43:                           ; preds = %if.then.i39, %if.then2.i37, %if.else4.i41
  %2 = load i32, ptr %value, align 4
  call void (ptr, ptr, ...) @emitter_printf(ptr noundef %emitter, ptr noundef nonnull %fmt, i32 noundef %2)
  br label %sw.epilog

sw.bb4:                                           ; preds = %entry
  switch i32 %justify, label %if.else4.i48 [
    i32 2, label %if.then.i46
    i32 0, label %if.then2.i44
  ]

if.then.i46:                                      ; preds = %sw.bb4
  %call.i47 = call i64 (ptr, i64, ptr, ...) @malloc_snprintf(ptr noundef nonnull %fmt, i64 noundef 10, ptr noundef nonnull @.str.222, ptr noundef nonnull getelementptr inbounds ([4 x i8], ptr @.str.216, i64 0, i64 1)) #13
  br label %emitter_gen_fmt.exit50

if.then2.i44:                                     ; preds = %sw.bb4
  %call3.i45 = call i64 (ptr, i64, ptr, ...) @malloc_snprintf(ptr noundef nonnull %fmt, i64 noundef 10, ptr noundef nonnull @.str.223, i32 noundef %width, ptr noundef nonnull getelementptr inbounds ([4 x i8], ptr @.str.216, i64 0, i64 1)) #13
  br label %emitter_gen_fmt.exit50

if.else4.i48:                                     ; preds = %sw.bb4
  %call5.i49 = call i64 (ptr, i64, ptr, ...) @malloc_snprintf(ptr noundef nonnull %fmt, i64 noundef 10, ptr noundef nonnull @.str.224, i32 noundef %width, ptr noundef nonnull getelementptr inbounds ([4 x i8], ptr @.str.216, i64 0, i64 1)) #13
  br label %emitter_gen_fmt.exit50

emitter_gen_fmt.exit50:                           ; preds = %if.then.i46, %if.then2.i44, %if.else4.i48
  %3 = load i64, ptr %value, align 8
  call void (ptr, ptr, ...) @emitter_printf(ptr noundef %emitter, ptr noundef nonnull %fmt, i64 noundef %3)
  br label %sw.epilog

sw.bb7:                                           ; preds = %entry
  switch i32 %justify, label %if.else4.i55 [
    i32 2, label %if.then.i53
    i32 0, label %if.then2.i51
  ]

if.then.i53:                                      ; preds = %sw.bb7
  %call.i54 = call i64 (ptr, i64, ptr, ...) @malloc_snprintf(ptr noundef nonnull %fmt, i64 noundef 10, ptr noundef nonnull @.str.222, ptr noundef nonnull getelementptr inbounds ([3 x i8], ptr @.str.217, i64 0, i64 1)) #13
  br label %emitter_gen_fmt.exit57

if.then2.i51:                                     ; preds = %sw.bb7
  %call3.i52 = call i64 (ptr, i64, ptr, ...) @malloc_snprintf(ptr noundef nonnull %fmt, i64 noundef 10, ptr noundef nonnull @.str.223, i32 noundef %width, ptr noundef nonnull getelementptr inbounds ([3 x i8], ptr @.str.217, i64 0, i64 1)) #13
  br label %emitter_gen_fmt.exit57

if.else4.i55:                                     ; preds = %sw.bb7
  %call5.i56 = call i64 (ptr, i64, ptr, ...) @malloc_snprintf(ptr noundef nonnull %fmt, i64 noundef 10, ptr noundef nonnull @.str.224, i32 noundef %width, ptr noundef nonnull getelementptr inbounds ([3 x i8], ptr @.str.217, i64 0, i64 1)) #13
  br label %emitter_gen_fmt.exit57

emitter_gen_fmt.exit57:                           ; preds = %if.then.i53, %if.then2.i51, %if.else4.i55
  %4 = load i32, ptr %value, align 4
  call void (ptr, ptr, ...) @emitter_printf(ptr noundef %emitter, ptr noundef nonnull %fmt, i32 noundef %4)
  br label %sw.epilog

sw.bb10:                                          ; preds = %entry
  switch i32 %justify, label %if.else4.i62 [
    i32 2, label %if.then.i60
    i32 0, label %if.then2.i58
  ]

if.then.i60:                                      ; preds = %sw.bb10
  %call.i61 = call i64 (ptr, i64, ptr, ...) @malloc_snprintf(ptr noundef nonnull %fmt, i64 noundef 10, ptr noundef nonnull @.str.222, ptr noundef nonnull getelementptr inbounds ([4 x i8], ptr @.str.218, i64 0, i64 1)) #13
  br label %emitter_gen_fmt.exit64

if.then2.i58:                                     ; preds = %sw.bb10
  %call3.i59 = call i64 (ptr, i64, ptr, ...) @malloc_snprintf(ptr noundef nonnull %fmt, i64 noundef 10, ptr noundef nonnull @.str.223, i32 noundef %width, ptr noundef nonnull getelementptr inbounds ([4 x i8], ptr @.str.218, i64 0, i64 1)) #13
  br label %emitter_gen_fmt.exit64

if.else4.i62:                                     ; preds = %sw.bb10
  %call5.i63 = call i64 (ptr, i64, ptr, ...) @malloc_snprintf(ptr noundef nonnull %fmt, i64 noundef 10, ptr noundef nonnull @.str.224, i32 noundef %width, ptr noundef nonnull getelementptr inbounds ([4 x i8], ptr @.str.218, i64 0, i64 1)) #13
  br label %emitter_gen_fmt.exit64

emitter_gen_fmt.exit64:                           ; preds = %if.then.i60, %if.then2.i58, %if.else4.i62
  %5 = load i64, ptr %value, align 8
  call void (ptr, ptr, ...) @emitter_printf(ptr noundef %emitter, ptr noundef nonnull %fmt, i64 noundef %5)
  br label %sw.epilog

sw.bb13:                                          ; preds = %entry
  switch i32 %justify, label %if.else4.i69 [
    i32 2, label %if.then.i67
    i32 0, label %if.then2.i65
  ]

if.then.i67:                                      ; preds = %sw.bb13
  %call.i68 = call i64 (ptr, i64, ptr, ...) @malloc_snprintf(ptr noundef nonnull %fmt, i64 noundef 10, ptr noundef nonnull @.str.222, ptr noundef nonnull getelementptr inbounds ([4 x i8], ptr @.str.219, i64 0, i64 1)) #13
  br label %emitter_gen_fmt.exit71

if.then2.i65:                                     ; preds = %sw.bb13
  %call3.i66 = call i64 (ptr, i64, ptr, ...) @malloc_snprintf(ptr noundef nonnull %fmt, i64 noundef 10, ptr noundef nonnull @.str.223, i32 noundef %width, ptr noundef nonnull getelementptr inbounds ([4 x i8], ptr @.str.219, i64 0, i64 1)) #13
  br label %emitter_gen_fmt.exit71

if.else4.i69:                                     ; preds = %sw.bb13
  %call5.i70 = call i64 (ptr, i64, ptr, ...) @malloc_snprintf(ptr noundef nonnull %fmt, i64 noundef 10, ptr noundef nonnull @.str.224, i32 noundef %width, ptr noundef nonnull getelementptr inbounds ([4 x i8], ptr @.str.219, i64 0, i64 1)) #13
  br label %emitter_gen_fmt.exit71

emitter_gen_fmt.exit71:                           ; preds = %if.then.i67, %if.then2.i65, %if.else4.i69
  %6 = load i64, ptr %value, align 8
  call void (ptr, ptr, ...) @emitter_printf(ptr noundef %emitter, ptr noundef nonnull %fmt, i64 noundef %6)
  br label %sw.epilog

sw.bb16:                                          ; preds = %entry
  %7 = load ptr, ptr %value, align 8
  %call18 = call i64 (ptr, i64, ptr, ...) @malloc_snprintf(ptr noundef nonnull %buf, i64 noundef 256, ptr noundef nonnull @.str.220, ptr noundef %7) #13
  switch i32 %justify, label %if.else4.i76 [
    i32 2, label %if.then.i74
    i32 0, label %if.then2.i72
  ]

if.then.i74:                                      ; preds = %sw.bb16
  %call.i75 = call i64 (ptr, i64, ptr, ...) @malloc_snprintf(ptr noundef nonnull %fmt, i64 noundef 10, ptr noundef nonnull @.str.222, ptr noundef nonnull getelementptr inbounds ([3 x i8], ptr @.str.28, i64 0, i64 1)) #13
  br label %emitter_gen_fmt.exit78

if.then2.i72:                                     ; preds = %sw.bb16
  %call3.i73 = call i64 (ptr, i64, ptr, ...) @malloc_snprintf(ptr noundef nonnull %fmt, i64 noundef 10, ptr noundef nonnull @.str.223, i32 noundef %width, ptr noundef nonnull getelementptr inbounds ([3 x i8], ptr @.str.28, i64 0, i64 1)) #13
  br label %emitter_gen_fmt.exit78

if.else4.i76:                                     ; preds = %sw.bb16
  %call5.i77 = call i64 (ptr, i64, ptr, ...) @malloc_snprintf(ptr noundef nonnull %fmt, i64 noundef 10, ptr noundef nonnull @.str.224, i32 noundef %width, ptr noundef nonnull getelementptr inbounds ([3 x i8], ptr @.str.28, i64 0, i64 1)) #13
  br label %emitter_gen_fmt.exit78

emitter_gen_fmt.exit78:                           ; preds = %if.then.i74, %if.then2.i72, %if.else4.i76
  call void (ptr, ptr, ...) @emitter_printf(ptr noundef %emitter, ptr noundef nonnull %fmt, ptr noundef nonnull %buf)
  br label %sw.epilog

sw.bb22:                                          ; preds = %entry
  switch i32 %justify, label %if.else4.i83 [
    i32 2, label %if.then.i81
    i32 0, label %if.then2.i79
  ]

if.then.i81:                                      ; preds = %sw.bb22
  %call.i82 = call i64 (ptr, i64, ptr, ...) @malloc_snprintf(ptr noundef nonnull %fmt, i64 noundef 10, ptr noundef nonnull @.str.222, ptr noundef nonnull getelementptr inbounds ([3 x i8], ptr @.str.217, i64 0, i64 1)) #13
  br label %emitter_gen_fmt.exit85

if.then2.i79:                                     ; preds = %sw.bb22
  %call3.i80 = call i64 (ptr, i64, ptr, ...) @malloc_snprintf(ptr noundef nonnull %fmt, i64 noundef 10, ptr noundef nonnull @.str.223, i32 noundef %width, ptr noundef nonnull getelementptr inbounds ([3 x i8], ptr @.str.217, i64 0, i64 1)) #13
  br label %emitter_gen_fmt.exit85

if.else4.i83:                                     ; preds = %sw.bb22
  %call5.i84 = call i64 (ptr, i64, ptr, ...) @malloc_snprintf(ptr noundef nonnull %fmt, i64 noundef 10, ptr noundef nonnull @.str.224, i32 noundef %width, ptr noundef nonnull getelementptr inbounds ([3 x i8], ptr @.str.217, i64 0, i64 1)) #13
  br label %emitter_gen_fmt.exit85

emitter_gen_fmt.exit85:                           ; preds = %if.then.i81, %if.then2.i79, %if.else4.i83
  %8 = load i32, ptr %value, align 4
  call void (ptr, ptr, ...) @emitter_printf(ptr noundef %emitter, ptr noundef nonnull %fmt, i32 noundef %8)
  br label %sw.epilog

sw.bb25:                                          ; preds = %entry
  switch i32 %justify, label %if.else4.i90 [
    i32 2, label %if.then.i88
    i32 0, label %if.then2.i86
  ]

if.then.i88:                                      ; preds = %sw.bb25
  %call.i89 = call i64 (ptr, i64, ptr, ...) @malloc_snprintf(ptr noundef nonnull %fmt, i64 noundef 10, ptr noundef nonnull @.str.222, ptr noundef nonnull getelementptr inbounds ([4 x i8], ptr @.str.221, i64 0, i64 1)) #13
  br label %emitter_gen_fmt.exit92

if.then2.i86:                                     ; preds = %sw.bb25
  %call3.i87 = call i64 (ptr, i64, ptr, ...) @malloc_snprintf(ptr noundef nonnull %fmt, i64 noundef 10, ptr noundef nonnull @.str.223, i32 noundef %width, ptr noundef nonnull getelementptr inbounds ([4 x i8], ptr @.str.221, i64 0, i64 1)) #13
  br label %emitter_gen_fmt.exit92

if.else4.i90:                                     ; preds = %sw.bb25
  %call5.i91 = call i64 (ptr, i64, ptr, ...) @malloc_snprintf(ptr noundef nonnull %fmt, i64 noundef 10, ptr noundef nonnull @.str.224, i32 noundef %width, ptr noundef nonnull getelementptr inbounds ([4 x i8], ptr @.str.221, i64 0, i64 1)) #13
  br label %emitter_gen_fmt.exit92

emitter_gen_fmt.exit92:                           ; preds = %if.then.i88, %if.then2.i86, %if.else4.i90
  %9 = load i64, ptr %value, align 8
  call void (ptr, ptr, ...) @emitter_printf(ptr noundef %emitter, ptr noundef nonnull %fmt, i64 noundef %9)
  br label %sw.epilog

sw.bb28:                                          ; preds = %entry
  switch i32 %justify, label %if.else4.i97 [
    i32 2, label %if.then.i95
    i32 0, label %if.then2.i93
  ]

if.then.i95:                                      ; preds = %sw.bb28
  %call.i96 = call i64 (ptr, i64, ptr, ...) @malloc_snprintf(ptr noundef nonnull %fmt, i64 noundef 10, ptr noundef nonnull @.str.222, ptr noundef nonnull getelementptr inbounds ([3 x i8], ptr @.str.28, i64 0, i64 1)) #13
  br label %emitter_gen_fmt.exit99

if.then2.i93:                                     ; preds = %sw.bb28
  %call3.i94 = call i64 (ptr, i64, ptr, ...) @malloc_snprintf(ptr noundef nonnull %fmt, i64 noundef 10, ptr noundef nonnull @.str.223, i32 noundef %width, ptr noundef nonnull getelementptr inbounds ([3 x i8], ptr @.str.28, i64 0, i64 1)) #13
  br label %emitter_gen_fmt.exit99

if.else4.i97:                                     ; preds = %sw.bb28
  %call5.i98 = call i64 (ptr, i64, ptr, ...) @malloc_snprintf(ptr noundef nonnull %fmt, i64 noundef 10, ptr noundef nonnull @.str.224, i32 noundef %width, ptr noundef nonnull getelementptr inbounds ([3 x i8], ptr @.str.28, i64 0, i64 1)) #13
  br label %emitter_gen_fmt.exit99

emitter_gen_fmt.exit99:                           ; preds = %if.then.i95, %if.then2.i93, %if.else4.i97
  %10 = load ptr, ptr %value, align 8
  call void (ptr, ptr, ...) @emitter_printf(ptr noundef %emitter, ptr noundef nonnull %fmt, ptr noundef %10)
  br label %sw.epilog

sw.default:                                       ; preds = %entry
  unreachable

sw.epilog:                                        ; preds = %emitter_gen_fmt.exit99, %emitter_gen_fmt.exit92, %emitter_gen_fmt.exit85, %emitter_gen_fmt.exit78, %emitter_gen_fmt.exit71, %emitter_gen_fmt.exit64, %emitter_gen_fmt.exit57, %emitter_gen_fmt.exit50, %emitter_gen_fmt.exit43, %emitter_gen_fmt.exit
  ret void
}